target datalayout = "e-m:e-p270:32:32-p271:32:32-p272:64:64-i64:64-i128:128-f80:128-n8:16:32:64-S128"
target triple = "x86_64-pc-linux-gnu"

%struct.malloc_params = type { i64, i64, i64, i64, i64, i32 }
%struct.malloc_state = type { i32, i32, i64, i64, ptr, ptr, ptr, i64, i64, i64, [66 x ptr], [32 x ptr], i64, i64, i64, i32, i32, %struct.malloc_segment, ptr, i64 }
%struct.malloc_segment = type { ptr, i64, ptr, i32 }
%struct.malloc_chunk = type { i64, i64, ptr, ptr }

@mparams = internal global %struct.malloc_params zeroinitializer, align 8

; Function Attrs: nounwind uwtable
define internal void @init_top(ptr noundef %0, ptr noundef %1, i64 noundef %2) #0 {
  %4 = alloca ptr, align 8
  %5 = alloca ptr, align 8
  %6 = alloca i64, align 8
  %7 = alloca i64, align 8
  store ptr %0, ptr %4, align 8, !tbaa !16
  store ptr %1, ptr %5, align 8, !tbaa !16
  store i64 %2, ptr %6, align 8, !tbaa !3
  call void @llvm.lifetime.start.p0(i64 8, ptr %7) #9
  %8 = load ptr, ptr %5, align 8, !tbaa !16
  %9 = getelementptr inbounds nuw i8, ptr %8, i64 16
  %10 = ptrtoint ptr %9 to i64
  %11 = and i64 %10, 15
  %12 = icmp eq i64 %11, 0
  br i1 %12, label %13, label %14

13:                                               ; preds = %3
  br label %21

14:                                               ; preds = %3
  %15 = load ptr, ptr %5, align 8, !tbaa !16
  %16 = getelementptr inbounds nuw i8, ptr %15, i64 16
  %17 = ptrtoint ptr %16 to i64
  %18 = and i64 %17, 15
  %19 = sub i64 16, %18
  %20 = and i64 %19, 15
  br label %21

21:                                               ; preds = %14, %13
  %22 = phi i64 [ 0, %13 ], [ %20, %14 ]
  store i64 %22, ptr %7, align 8, !tbaa !3
  %23 = load ptr, ptr %5, align 8, !tbaa !16
  %24 = load i64, ptr %7, align 8, !tbaa !3
  %25 = getelementptr inbounds nuw i8, ptr %23, i64 %24
  store ptr %25, ptr %5, align 8, !tbaa !16
  %26 = load i64, ptr %7, align 8, !tbaa !3
  %27 = load i64, ptr %6, align 8, !tbaa !3
  %28 = sub i64 %27, %26
  store i64 %28, ptr %6, align 8, !tbaa !3
  %29 = load ptr, ptr %5, align 8, !tbaa !16
  %30 = load ptr, ptr %4, align 8, !tbaa !16
  %31 = getelementptr inbounds nuw %struct.malloc_state, ptr %30, i32 0, i32 6
  store ptr %29, ptr %31, align 8, !tbaa !27
  %32 = load i64, ptr %6, align 8, !tbaa !3
  %33 = load ptr, ptr %4, align 8, !tbaa !16
  %34 = getelementptr inbounds nuw %struct.malloc_state, ptr %33, i32 0, i32 3
  store i64 %32, ptr %34, align 8, !tbaa !26
  %35 = load i64, ptr %6, align 8, !tbaa !3
  %36 = or i64 %35, 1
  %37 = load ptr, ptr %5, align 8, !tbaa !16
  %38 = getelementptr inbounds nuw %struct.malloc_chunk, ptr %37, i32 0, i32 1
  store i64 %36, ptr %38, align 8, !tbaa !21
  %39 = load ptr, ptr %5, align 8, !tbaa !16
  %40 = load i64, ptr %6, align 8, !tbaa !3
  %41 = getelementptr inbounds nuw i8, ptr %39, i64 %40
  %42 = getelementptr inbounds nuw %struct.malloc_chunk, ptr %41, i32 0, i32 1
  store i64 80, ptr %42, align 8, !tbaa !21
  %43 = load i64, ptr getelementptr inbounds nuw (%struct.malloc_params, ptr @mparams, i32 0, i32 4), align 8, !tbaa !31
  %44 = load ptr, ptr %4, align 8, !tbaa !16
  %45 = getelementptr inbounds nuw %struct.malloc_state, ptr %44, i32 0, i32 7
  store i64 %43, ptr %45, align 8, !tbaa !61
  call void @llvm.lifetime.end.p0(i64 8, ptr %7) #9
  ret void
}

; Function Attrs: nounwind uwtable
define internal i32 @has_segment_link(ptr noundef %0, ptr noundef %1) #0 {
  %3 = alloca i32, align 4
  %4 = alloca ptr, align 8
  %5 = alloca ptr, align 8
  %6 = alloca ptr, align 8
  %7 = alloca i32, align 4
  store ptr %0, ptr %4, align 8, !tbaa !16
  store ptr %1, ptr %5, align 8, !tbaa !16
  call void @llvm.lifetime.start.p0(i64 8, ptr %6) #9
  %8 = load ptr, ptr %4, align 8, !tbaa !16
  %9 = getelementptr inbounds nuw %struct.malloc_state, ptr %8, i32 0, i32 17
  store ptr %9, ptr %6, align 8, !tbaa !16
  br label %10

10:                                               ; preds = %33, %2
  %11 = load ptr, ptr %6, align 8, !tbaa !16
  %12 = load ptr, ptr %5, align 8, !tbaa !16
  %13 = getelementptr inbounds nuw %struct.malloc_segment, ptr %12, i32 0, i32 0
  %14 = load ptr, ptr %13, align 8, !tbaa !54
  %15 = icmp uge ptr %11, %14
  br i1 %15, label %16, label %27

16:                                               ; preds = %10
  %17 = load ptr, ptr %6, align 8, !tbaa !16
  %18 = load ptr, ptr %5, align 8, !tbaa !16
  %19 = getelementptr inbounds nuw %struct.malloc_segment, ptr %18, i32 0, i32 0
  %20 = load ptr, ptr %19, align 8, !tbaa !54
  %21 = load ptr, ptr %5, align 8, !tbaa !16
  %22 = getelementptr inbounds nuw %struct.malloc_segment, ptr %21, i32 0, i32 1
  %23 = load i64, ptr %22, align 8, !tbaa !55
  %24 = getelementptr inbounds nuw i8, ptr %20, i64 %23
  %25 = icmp ult ptr %17, %24
  br i1 %25, label %26, label %27

26:                                               ; preds = %16
  store i32 1, ptr %3, align 4
  store i32 1, ptr %7, align 4
  br label %34

27:                                               ; preds = %16, %10
  %28 = load ptr, ptr %6, align 8, !tbaa !16
  %29 = getelementptr inbounds nuw %struct.malloc_segment, ptr %28, i32 0, i32 2
  %30 = load ptr, ptr %29, align 8, !tbaa !56
  store ptr %30, ptr %6, align 8, !tbaa !16
  %31 = icmp eq ptr %30, null
  br i1 %31, label %32, label %33

32:                                               ; preds = %27
  store i32 0, ptr %3, align 4
  store i32 1, ptr %7, align 4
  br label %34

33:                                               ; preds = %27
  br label %10

34:                                               ; preds = %32, %26
  call void @llvm.lifetime.end.p0(i64 8, ptr %6) #9
  %35 = load i32, ptr %3, align 4
  ret i32 %35
}

; Function Attrs: nounwind uwtable
define internal ptr @segment_holding(ptr noundef %0, ptr noundef %1) #0 {
  %3 = alloca ptr, align 8
  %4 = alloca ptr, align 8
  %5 = alloca ptr, align 8
  %6 = alloca ptr, align 8
  %7 = alloca i32, align 4
  store ptr %0, ptr %4, align 8, !tbaa !16
  store ptr %1, ptr %5, align 8, !tbaa !16
  call void @llvm.lifetime.start.p0(i64 8, ptr %6) #9
  %8 = load ptr, ptr %4, align 8, !tbaa !16
  %9 = getelementptr inbounds nuw %struct.malloc_state, ptr %8, i32 0, i32 17
  store ptr %9, ptr %6, align 8, !tbaa !16
  br label %10

10:                                               ; preds = %34, %2
  %11 = load ptr, ptr %5, align 8, !tbaa !16
  %12 = load ptr, ptr %6, align 8, !tbaa !16
  %13 = getelementptr inbounds nuw %struct.malloc_segment, ptr %12, i32 0, i32 0
  %14 = load ptr, ptr %13, align 8, !tbaa !54
  %15 = icmp uge ptr %11, %14
  br i1 %15, label %16, label %28

16:                                               ; preds = %10
  %17 = load ptr, ptr %5, align 8, !tbaa !16
  %18 = load ptr, ptr %6, align 8, !tbaa !16
  %19 = getelementptr inbounds nuw %struct.malloc_segment, ptr %18, i32 0, i32 0
  %20 = load ptr, ptr %19, align 8, !tbaa !54
  %21 = load ptr, ptr %6, align 8, !tbaa !16
  %22 = getelementptr inbounds nuw %struct.malloc_segment, ptr %21, i32 0, i32 1
  %23 = load i64, ptr %22, align 8, !tbaa !55
  %24 = getelementptr inbounds nuw i8, ptr %20, i64 %23
  %25 = icmp ult ptr %17, %24
  br i1 %25, label %26, label %28

26:                                               ; preds = %16
  %27 = load ptr, ptr %6, align 8, !tbaa !16
  store ptr %27, ptr %3, align 8
  store i32 1, ptr %7, align 4
  br label %35

28:                                               ; preds = %16, %10
  %29 = load ptr, ptr %6, align 8, !tbaa !16
  %30 = getelementptr inbounds nuw %struct.malloc_segment, ptr %29, i32 0, i32 2
  %31 = load ptr, ptr %30, align 8, !tbaa !56
  store ptr %31, ptr %6, align 8, !tbaa !16
  %32 = icmp eq ptr %31, null
  br i1 %32, label %33, label %34

33:                                               ; preds = %28
  store ptr null, ptr %3, align 8
  store i32 1, ptr %7, align 4
  br label %35

34:                                               ; preds = %28
  br label %10

35:                                               ; preds = %33, %26
  call void @llvm.lifetime.end.p0(i64 8, ptr %6) #9
  %36 = load ptr, ptr %3, align 8
  ret ptr %36
}

; Function Attrs: nounwind uwtable
define internal i32 @sys_trim(ptr noundef %0, i64 noundef %1) #0 {
  %3 = alloca ptr, align 8
  %4 = alloca i64, align 8
  %5 = alloca i64, align 8
  %6 = alloca i64, align 8
  %7 = alloca i64, align 8
  %8 = alloca ptr, align 8
  %9 = alloca i64, align 8
  store ptr %0, ptr %3, align 8, !tbaa !16
  store i64 %1, ptr %4, align 8, !tbaa !3
  call void @llvm.lifetime.start.p0(i64 8, ptr %5) #9
  store i64 0, ptr %5, align 8, !tbaa !3
  %10 = load i64, ptr @mparams, align 8, !tbaa !7
  %11 = icmp ne i64 %10, 0
  br i1 %11, label %14, label %12

12:                                               ; preds = %2
  %13 = call i32 @init_mparams()
  br label %14

14:                                               ; preds = %12, %2
  %15 = load i64, ptr %4, align 8, !tbaa !3
  %16 = icmp ult i64 %15, -128
  br i1 %16, label %17, label %146

17:                                               ; preds = %14
  %18 = load ptr, ptr %3, align 8, !tbaa !16
  %19 = getelementptr inbounds nuw %struct.malloc_state, ptr %18, i32 0, i32 6
  %20 = load ptr, ptr %19, align 8, !tbaa !27
  %21 = icmp ne ptr %20, null
  br i1 %21, label %22, label %146

22:                                               ; preds = %17
  %23 = load i64, ptr %4, align 8, !tbaa !3
  %24 = add i64 %23, 80
  store i64 %24, ptr %4, align 8, !tbaa !3
  %25 = load ptr, ptr %3, align 8, !tbaa !16
  %26 = getelementptr inbounds nuw %struct.malloc_state, ptr %25, i32 0, i32 3
  %27 = load i64, ptr %26, align 8, !tbaa !26
  %28 = load i64, ptr %4, align 8, !tbaa !3
  %29 = icmp ugt i64 %27, %28
  br i1 %29, label %30, label %127

30:                                               ; preds = %22
  call void @llvm.lifetime.start.p0(i64 8, ptr %6) #9
  %31 = load i64, ptr getelementptr inbounds nuw (%struct.malloc_params, ptr @mparams, i32 0, i32 2), align 8, !tbaa !28
  store i64 %31, ptr %6, align 8, !tbaa !3
  call void @llvm.lifetime.start.p0(i64 8, ptr %7) #9
  %32 = load ptr, ptr %3, align 8, !tbaa !16
  %33 = getelementptr inbounds nuw %struct.malloc_state, ptr %32, i32 0, i32 3
  %34 = load i64, ptr %33, align 8, !tbaa !26
  %35 = load i64, ptr %4, align 8, !tbaa !3
  %36 = sub i64 %34, %35
  %37 = load i64, ptr %6, align 8, !tbaa !3
  %38 = sub i64 %37, 1
  %39 = add i64 %36, %38
  %40 = load i64, ptr %6, align 8, !tbaa !3
  %41 = udiv i64 %39, %40
  %42 = sub i64 %41, 1
  %43 = load i64, ptr %6, align 8, !tbaa !3
  %44 = mul i64 %42, %43
  store i64 %44, ptr %7, align 8, !tbaa !3
  call void @llvm.lifetime.start.p0(i64 8, ptr %8) #9
  %45 = load ptr, ptr %3, align 8, !tbaa !16
  %46 = load ptr, ptr %3, align 8, !tbaa !16
  %47 = getelementptr inbounds nuw %struct.malloc_state, ptr %46, i32 0, i32 6
  %48 = load ptr, ptr %47, align 8, !tbaa !27
  %49 = call ptr @segment_holding(ptr noundef %45, ptr noundef %48)
  store ptr %49, ptr %8, align 8, !tbaa !16
  %50 = load ptr, ptr %8, align 8, !tbaa !16
  %51 = getelementptr inbounds nuw %struct.malloc_segment, ptr %50, i32 0, i32 3
  %52 = load i32, ptr %51, align 8, !tbaa !58
  %53 = and i32 %52, 8
  %54 = icmp ne i32 %53, 0
  br i1 %54, label %103, label %55

55:                                               ; preds = %30
  %56 = load ptr, ptr %8, align 8, !tbaa !16
  %57 = getelementptr inbounds nuw %struct.malloc_segment, ptr %56, i32 0, i32 3
  %58 = load i32, ptr %57, align 8, !tbaa !58
  %59 = zext i32 %58 to i64
  %60 = and i64 %59, 1
  %61 = icmp ne i64 %60, 0
  br i1 %61, label %62, label %101

62:                                               ; preds = %55
  %63 = load ptr, ptr %8, align 8, !tbaa !16
  %64 = getelementptr inbounds nuw %struct.malloc_segment, ptr %63, i32 0, i32 1
  %65 = load i64, ptr %64, align 8, !tbaa !55
  %66 = load i64, ptr %7, align 8, !tbaa !3
  %67 = icmp uge i64 %65, %66
  br i1 %67, label %68, label %100

68:                                               ; preds = %62
  %69 = load ptr, ptr %3, align 8, !tbaa !16
  %70 = load ptr, ptr %8, align 8, !tbaa !16
  %71 = call i32 @has_segment_link(ptr noundef %69, ptr noundef %70)
  %72 = icmp ne i32 %71, 0
  br i1 %72, label %100, label %73

73:                                               ; preds = %68
  call void @llvm.lifetime.start.p0(i64 8, ptr %9) #9
  %74 = load ptr, ptr %8, align 8, !tbaa !16
  %75 = getelementptr inbounds nuw %struct.malloc_segment, ptr %74, i32 0, i32 1
  %76 = load i64, ptr %75, align 8, !tbaa !55
  %77 = load i64, ptr %7, align 8, !tbaa !3
  %78 = sub i64 %76, %77
  store i64 %78, ptr %9, align 8, !tbaa !3
  %79 = load ptr, ptr %8, align 8, !tbaa !16
  %80 = getelementptr inbounds nuw %struct.malloc_segment, ptr %79, i32 0, i32 0
  %81 = load ptr, ptr %80, align 8, !tbaa !54
  %82 = load ptr, ptr %8, align 8, !tbaa !16
  %83 = getelementptr inbounds nuw %struct.malloc_segment, ptr %82, i32 0, i32 1
  %84 = load i64, ptr %83, align 8, !tbaa !55
  %85 = load i64, ptr %9, align 8, !tbaa !3
  %86 = call ptr (ptr, i64, i64, i32, ...) @mremap(ptr noundef %81, i64 noundef %84, i64 noundef %85, i32 noundef 0) #9
  %87 = icmp ne ptr %86, inttoptr (i64 -1 to ptr)
  br i1 %87, label %97, label %88

88:                                               ; preds = %73
  %89 = load ptr, ptr %8, align 8, !tbaa !16
  %90 = getelementptr inbounds nuw %struct.malloc_segment, ptr %89, i32 0, i32 0
  %91 = load ptr, ptr %90, align 8, !tbaa !54
  %92 = load i64, ptr %9, align 8, !tbaa !3
  %93 = getelementptr inbounds nuw i8, ptr %91, i64 %92
  %94 = load i64, ptr %7, align 8, !tbaa !3
  %95 = call i32 @munmap(ptr noundef %93, i64 noundef %94) #9
  %96 = icmp eq i32 %95, 0
  br i1 %96, label %97, label %99

97:                                               ; preds = %88, %73
  %98 = load i64, ptr %7, align 8, !tbaa !3
  store i64 %98, ptr %5, align 8, !tbaa !3
  br label %99

99:                                               ; preds = %97, %88
  call void @llvm.lifetime.end.p0(i64 8, ptr %9) #9
  br label %100

100:                                              ; preds = %99, %68, %62
  br label %102

101:                                              ; preds = %55
  br label %102

102:                                              ; preds = %101, %100
  br label %103

103:                                              ; preds = %102, %30
  %104 = load i64, ptr %5, align 8, !tbaa !3
  %105 = icmp ne i64 %104, 0
  br i1 %105, label %106, label %126

106:                                              ; preds = %103
  %107 = load i64, ptr %5, align 8, !tbaa !3
  %108 = load ptr, ptr %8, align 8, !tbaa !16
  %109 = getelementptr inbounds nuw %struct.malloc_segment, ptr %108, i32 0, i32 1
  %110 = load i64, ptr %109, align 8, !tbaa !55
  %111 = sub i64 %110, %107
  store i64 %111, ptr %109, align 8, !tbaa !55
  %112 = load i64, ptr %5, align 8, !tbaa !3
  %113 = load ptr, ptr %3, align 8, !tbaa !16
  %114 = getelementptr inbounds nuw %struct.malloc_state, ptr %113, i32 0, i32 12
  %115 = load i64, ptr %114, align 8, !tbaa !47
  %116 = sub i64 %115, %112
  store i64 %116, ptr %114, align 8, !tbaa !47
  %117 = load ptr, ptr %3, align 8, !tbaa !16
  %118 = load ptr, ptr %3, align 8, !tbaa !16
  %119 = getelementptr inbounds nuw %struct.malloc_state, ptr %118, i32 0, i32 6
  %120 = load ptr, ptr %119, align 8, !tbaa !27
  %121 = load ptr, ptr %3, align 8, !tbaa !16
  %122 = getelementptr inbounds nuw %struct.malloc_state, ptr %121, i32 0, i32 3
  %123 = load i64, ptr %122, align 8, !tbaa !26
  %124 = load i64, ptr %5, align 8, !tbaa !3
  %125 = sub i64 %123, %124
  call void @init_top(ptr noundef %117, ptr noundef %120, i64 noundef %125)
  br label %126

126:                                              ; preds = %106, %103
  call void @llvm.lifetime.end.p0(i64 8, ptr %8) #9
  call void @llvm.lifetime.end.p0(i64 8, ptr %7) #9
  call void @llvm.lifetime.end.p0(i64 8, ptr %6) #9
  br label %127

127:                                              ; preds = %126, %22
  %128 = load ptr, ptr %3, align 8, !tbaa !16
  %129 = call i64 @release_unused_segments(ptr noundef %128)
  %130 = load i64, ptr %5, align 8, !tbaa !3
  %131 = add i64 %130, %129
  store i64 %131, ptr %5, align 8, !tbaa !3
  %132 = load i64, ptr %5, align 8, !tbaa !3
  %133 = icmp eq i64 %132, 0
  br i1 %133, label %134, label %145

134:                                              ; preds = %127
  %135 = load ptr, ptr %3, align 8, !tbaa !16
  %136 = getelementptr inbounds nuw %struct.malloc_state, ptr %135, i32 0, i32 3
  %137 = load i64, ptr %136, align 8, !tbaa !26
  %138 = load ptr, ptr %3, align 8, !tbaa !16
  %139 = getelementptr inbounds nuw %struct.malloc_state, ptr %138, i32 0, i32 7
  %140 = load i64, ptr %139, align 8, !tbaa !61
  %141 = icmp ugt i64 %137, %140
  br i1 %141, label %142, label %145

142:                                              ; preds = %134
  %143 = load ptr, ptr %3, align 8, !tbaa !16
  %144 = getelementptr inbounds nuw %struct.malloc_state, ptr %143, i32 0, i32 7
  store i64 -1, ptr %144, align 8, !tbaa !61
  br label %145

145:                                              ; preds = %142, %134, %127
  br label %146

146:                                              ; preds = %145, %17, %14
  %147 = load i64, ptr %5, align 8, !tbaa !3
  %148 = icmp ne i64 %147, 0
  %149 = select i1 %148, i32 1, i32 0
  call void @llvm.lifetime.end.p0(i64 8, ptr %5) #9
  ret i32 %149
}