; Function Attrs: nounwind uwtable
define internal fastcc range(i32 0, 2) i32 @sys_trim(ptr noundef %0, i64 noundef %1) unnamed_addr #0 {
  %3 = load i64, ptr @mparams, align 8, !tbaa !3
  %.not = icmp eq i64 %3, 0
  br i1 %.not, label %4, label %5

4:                                                ; preds = %2
  tail call fastcc void @init_mparams()
  br label %5

5:                                                ; preds = %4, %2
  %6 = icmp ult i64 %1, -128
  br i1 %6, label %7, label %87

7:                                                ; preds = %5
  %8 = getelementptr inbounds nuw i8, ptr %0, i64 40
  %9 = load ptr, ptr %8, align 8, !tbaa !29
  %.not49 = icmp eq ptr %9, null
  br i1 %.not49, label %87, label %10

10:                                               ; preds = %7
  %11 = add nuw i64 %1, 80
  %12 = getelementptr inbounds nuw i8, ptr %0, i64 16
  %13 = load i64, ptr %12, align 8, !tbaa !28
  %14 = icmp ugt i64 %13, %11
  br i1 %14, label %15, label %has_segment_link.exit.thread61

15:                                               ; preds = %10
  %16 = load i64, ptr getelementptr inbounds nuw (i8, ptr @mparams, i64 16), align 8, !tbaa !30
  %reass.sub = sub i64 %13, %1
  %17 = add i64 %reass.sub, -81
  %18 = add i64 %17, %16
  %19 = udiv i64 %18, %16
  %20 = add i64 %19, -1
  %21 = mul i64 %20, %16
  %22 = getelementptr inbounds nuw i8, ptr %0, i64 888
  br label %23

23:                                               ; preds = %30, %15
  %.0.i = phi ptr [ %22, %15 ], [ %32, %30 ]
  %24 = load ptr, ptr %.0.i, align 8, !tbaa !58
  %.not.i = icmp ult ptr %9, %24
  br i1 %.not.i, label %30, label %25

25:                                               ; preds = %23
  %26 = getelementptr inbounds nuw i8, ptr %.0.i, i64 8
  %27 = load i64, ptr %26, align 8, !tbaa !59
  %28 = getelementptr inbounds nuw i8, ptr %24, i64 %27
  %29 = icmp ult ptr %9, %28
  br i1 %29, label %segment_holding.exit, label %30

30:                                               ; preds = %25, %23
  %31 = getelementptr inbounds nuw i8, ptr %.0.i, i64 16
  %32 = load ptr, ptr %31, align 8, !tbaa !60
  %33 = icmp eq ptr %32, null
  br i1 %33, label %segment_holding.exit, label %23

segment_holding.exit:                             ; preds = %25, %30
  %.09.i = phi ptr [ %.0.i, %25 ], [ null, %30 ]
  %34 = getelementptr inbounds nuw i8, ptr %.09.i, i64 24
  %35 = load i32, ptr %34, align 8, !tbaa !62
  %36 = and i32 %35, 9
  %or.cond.not = icmp eq i32 %36, 1
  br i1 %or.cond.not, label %37, label %has_segment_link.exit.thread61

37:                                               ; preds = %segment_holding.exit
  %38 = getelementptr inbounds nuw i8, ptr %.09.i, i64 8
  %39 = load i64, ptr %38, align 8, !tbaa !59
  %.not52 = icmp ult i64 %39, %21
  br i1 %.not52, label %has_segment_link.exit.thread61, label %40

40:                                               ; preds = %37
  %41 = load ptr, ptr %.09.i, align 8, !tbaa !58
  %42 = getelementptr inbounds nuw i8, ptr %41, i64 %39
  br label %43

43:                                               ; preds = %45, %40
  %.0.i57 = phi ptr [ %22, %40 ], [ %47, %45 ]
  %.not.i58 = icmp uge ptr %.0.i57, %41
  %44 = icmp ult ptr %.0.i57, %42
  %or.cond65 = select i1 %.not.i58, i1 %44, i1 false
  br i1 %or.cond65, label %has_segment_link.exit.thread61, label %45

45:                                               ; preds = %43
  %46 = getelementptr inbounds nuw i8, ptr %.0.i57, i64 16
  %47 = load ptr, ptr %46, align 8, !tbaa !60
  %48 = icmp eq ptr %47, null
  br i1 %48, label %49, label %43

49:                                               ; preds = %45
  %50 = sub i64 %39, %21
  %51 = tail call ptr (ptr, i64, i64, i32, ...) @mremap(ptr noundef %41, i64 noundef %39, i64 noundef %50, i32 noundef 0) #17
  %.not54 = icmp eq ptr %51, inttoptr (i64 -1 to ptr)
  br i1 %.not54, label %52, label %has_segment_link.exit

52:                                               ; preds = %49
  %53 = load ptr, ptr %.09.i, align 8, !tbaa !58
  %54 = getelementptr inbounds nuw i8, ptr %53, i64 %50
  %55 = tail call i32 @munmap(ptr noundef %54, i64 noundef %21) #17
  %56 = icmp ne i32 %55, 0
  %.not55 = icmp eq i64 %21, 0
  %or.cond66 = or i1 %56, %.not55
  br i1 %or.cond66, label %has_segment_link.exit.thread61, label %57

has_segment_link.exit:                            ; preds = %49
  %.not55.old = icmp eq i64 %21, 0
  br i1 %.not55.old, label %has_segment_link.exit.thread61, label %57

57:                                               ; preds = %52, %has_segment_link.exit
  %58 = load i64, ptr %38, align 8, !tbaa !59
  %59 = sub i64 %58, %21
  store i64 %59, ptr %38, align 8, !tbaa !59
  %60 = getelementptr inbounds nuw i8, ptr %0, i64 856
  %61 = load i64, ptr %60, align 8, !tbaa !49
  %62 = sub i64 %61, %21
  store i64 %62, ptr %60, align 8, !tbaa !49
  %63 = load ptr, ptr %8, align 8, !tbaa !29
  %64 = load i64, ptr %12, align 8, !tbaa !28
  %65 = sub i64 %64, %21
  %66 = getelementptr inbounds nuw i8, ptr %63, i64 16
  %67 = ptrtoint ptr %66 to i64
  %68 = sub i64 0, %67
  %69 = and i64 %68, 15
  %70 = getelementptr inbounds nuw i8, ptr %63, i64 %69
  %71 = sub i64 %65, %69
  store ptr %70, ptr %8, align 8, !tbaa !29
  store i64 %71, ptr %12, align 8, !tbaa !28
  %72 = or i64 %71, 1
  %73 = getelementptr inbounds nuw i8, ptr %70, i64 8
  store i64 %72, ptr %73, align 8, !tbaa !23
  %74 = getelementptr inbounds nuw i8, ptr %63, i64 %65
  %75 = getelementptr inbounds nuw i8, ptr %74, i64 8
  store i64 80, ptr %75, align 8, !tbaa !23
  %76 = load i64, ptr getelementptr inbounds nuw (i8, ptr @mparams, i64 32), align 8, !tbaa !33
  %77 = getelementptr inbounds nuw i8, ptr %0, i64 48
  store i64 %76, ptr %77, align 8, !tbaa !57
  br label %has_segment_link.exit.thread61

has_segment_link.exit.thread61:                   ; preds = %43, %52, %37, %segment_holding.exit, %has_segment_link.exit, %57, %10
  %.1 = phi i64 [ 0, %10 ], [ %21, %57 ], [ 0, %has_segment_link.exit ], [ 0, %segment_holding.exit ], [ 0, %37 ], [ 0, %52 ], [ 0, %43 ]
  %78 = tail call fastcc i64 @release_unused_segments(ptr noundef %0)
  %79 = sub i64 0, %78
  %80 = icmp eq i64 %.1, %79
  br i1 %80, label %81, label %87

81:                                               ; preds = %has_segment_link.exit.thread61
  %82 = load i64, ptr %12, align 8, !tbaa !28
  %83 = getelementptr inbounds nuw i8, ptr %0, i64 48
  %84 = load i64, ptr %83, align 8, !tbaa !57
  %85 = icmp ugt i64 %82, %84
  br i1 %85, label %86, label %87

86:                                               ; preds = %81
  store i64 -1, ptr %83, align 8, !tbaa !57
  br label %87

87:                                               ; preds = %has_segment_link.exit.thread61, %81, %86, %7, %5
  %not..0 = phi i32 [ 0, %86 ], [ 0, %81 ], [ 1, %has_segment_link.exit.thread61 ], [ 0, %7 ], [ 0, %5 ]
  ret i32 %not..0
}